target datalayout = "e-m:e-p270:32:32-p271:32:32-p272:64:64-i64:64-i128:128-f80:128-n8:16:32:64-S128"
target triple = "x86_64-pc-linux-gnu"

%class.VM_Operation = type { ptr, ptr }
%union.jvalue = type { i64 }
%class.VM_BaseGetOrSetLocal = type { %class.VM_Operation, ptr, i32, i32, i8, %union.jvalue, ptr, i8, i8, i32 }
%class.Handle = type { ptr }
%class.frame = type { %union.anon.4, ptr, ptr, ptr, i32, i8, %union.anon.5, %union.anon.6 }
%union.anon.4 = type { ptr }
%union.anon.5 = type { ptr }
%union.anon.6 = type { ptr }
%class.RegisterMap = type <{ [609 x ptr], [10 x i64], i8, [7 x i8], ptr, %class.stackChunkHandle, i32, i8, i8, i8, i8 }>
%class.stackChunkHandle = type { %class.Handle }
%class.VM_VirtualThreadGetOrSetLocal = type { %class.VM_BaseGetOrSetLocal, ptr, %class.Handle }
%class.vframeStream = type { %class.vframeStreamCommon }
%class.vframeStreamCommon = type { %class.frame, ptr, %class.RegisterMap, i32, i32, i32, i32, ptr, i32, ptr, i8, %class.Handle }

@_ZN6Thread12_thr_currentE = external thread_local global ptr, align 8

; Function Attrs: mustprogress nounwind uwtable
define linkonce_odr hidden noundef ptr @_ZNK6Handle3objEv(ptr noundef nonnull align 8 dereferenceable(8) %0) #1 comdat align 2 {
  %2 = alloca ptr, align 8
  store ptr %0, ptr %2, align 8
  %3 = load ptr, ptr %2, align 8
  %4 = getelementptr inbounds %class.Handle, ptr %3, i32 0, i32 0
  %5 = load ptr, ptr %4, align 8
  %6 = icmp eq ptr %5, null
  br i1 %6, label %7, label %8

7:                                                ; preds = %1
  br label %12

8:                                                ; preds = %1
  %9 = getelementptr inbounds %class.Handle, ptr %3, i32 0, i32 0
  %10 = load ptr, ptr %9, align 8
  %11 = load ptr, ptr %10, align 8
  br label %12

12:                                               ; preds = %8, %7
  %13 = phi ptr [ null, %7 ], [ %11, %8 ]
  ret ptr %13
}

; Function Attrs: mustprogress nounwind uwtable
define linkonce_odr hidden noundef ptr @_ZN6Thread15current_or_nullEv() #1 comdat align 2 {
  %1 = call align 8 ptr @llvm.threadlocal.address.p0(ptr align 8 @_ZN6Thread12_thr_currentE)
  %2 = load ptr, ptr %1, align 8
  ret ptr %2
}

; Function Attrs: mustprogress nounwind uwtable
define linkonce_odr hidden void @_ZN6HandleC2Ev(ptr noundef nonnull align 8 dereferenceable(8) %0) unnamed_addr #1 comdat align 2 {
  %2 = alloca ptr, align 8
  store ptr %0, ptr %2, align 8
  %3 = load ptr, ptr %2, align 8
  %4 = getelementptr inbounds %class.Handle, ptr %3, i32 0, i32 0
  store ptr null, ptr %4, align 8
  ret void
}

; Function Attrs: mustprogress nounwind uwtable
define linkonce_odr hidden noundef zeroext i1 @_ZNK18vframeStreamCommon6at_endEv(ptr noundef nonnull align 8 dereferenceable(5104) %0) #1 comdat align 2 {
  %2 = alloca ptr, align 8
  store ptr %0, ptr %2, align 8
  %3 = load ptr, ptr %2, align 8
  %4 = getelementptr inbounds %class.vframeStreamCommon, ptr %3, i32 0, i32 3
  %5 = load i32, ptr %4, align 8
  %6 = icmp eq i32 %5, 2
  ret i1 %6
}

; Function Attrs: mustprogress nounwind uwtable
define linkonce_odr hidden noundef ptr @_ZNK6HandleclEv(ptr noundef nonnull align 8 dereferenceable(8) %0) #1 comdat align 2 {
  %2 = alloca ptr, align 8
  store ptr %0, ptr %2, align 8
  %3 = load ptr, ptr %2, align 8
  %4 = call noundef ptr @_ZNK6Handle3objEv(ptr noundef nonnull align 8 dereferenceable(8) %3)
  ret ptr %4
}

; Function Attrs: mustprogress nounwind uwtable
define linkonce_odr hidden noundef ptr @_ZN6Thread7currentEv() #1 comdat align 2 {
  %1 = alloca ptr, align 8
  %2 = call noundef ptr @_ZN6Thread15current_or_nullEv()
  store ptr %2, ptr %1, align 8
  %3 = load ptr, ptr %1, align 8
  ret ptr %3
}

; Function Attrs: mustprogress nounwind uwtable
define hidden noundef ptr @_ZN29VM_VirtualThreadGetOrSetLocal15get_java_vframeEv(ptr noundef nonnull align 8 dereferenceable(80) %0) unnamed_addr #1 align 2 {
  %2 = alloca ptr, align 8
  %3 = alloca ptr, align 8
  %4 = alloca ptr, align 8
  %5 = alloca ptr, align 8
  %6 = alloca ptr, align 8
  %7 = alloca ptr, align 8
  %8 = alloca i8, align 1
  %9 = alloca %class.vframeStream, align 8
  %10 = alloca %class.vframeStream, align 8
  %11 = alloca %class.Handle, align 8
  %12 = alloca i32, align 4
  store ptr %0, ptr %3, align 8
  %13 = load ptr, ptr %3, align 8
  %14 = call noundef ptr @_ZN6Thread7currentEv()
  store ptr %14, ptr %4, align 8
  %15 = getelementptr inbounds %class.VM_VirtualThreadGetOrSetLocal, ptr %13, i32 0, i32 2
  %16 = call noundef ptr @_ZNK6HandleclEv(ptr noundef nonnull align 8 dereferenceable(8) %15)
  %17 = call noundef ptr @_ZN23java_lang_VirtualThread12continuationEP7oopDesc(ptr noundef %16)
  store ptr %17, ptr %5, align 8
  store ptr null, ptr %6, align 8
  %18 = getelementptr inbounds %class.VM_VirtualThreadGetOrSetLocal, ptr %13, i32 0, i32 2
  %19 = call noundef ptr @_ZNK6HandleclEv(ptr noundef nonnull align 8 dereferenceable(8) %18)
  %20 = call noundef ptr @_ZN12JvmtiEnvBase22get_JavaThread_or_nullEP7oopDesc(ptr noundef %19)
  store ptr %20, ptr %7, align 8
  %21 = load ptr, ptr %7, align 8
  %22 = icmp ne ptr %21, null
  %23 = zext i1 %22 to i8
  store i8 %23, ptr %8, align 1
  %24 = getelementptr inbounds %class.VM_BaseGetOrSetLocal, ptr %13, i32 0, i32 8
  %25 = load i8, ptr %24, align 1
  %26 = trunc i8 %25 to i1
  br i1 %26, label %33, label %27

27:                                               ; preds = %1
  %28 = getelementptr inbounds %class.VM_VirtualThreadGetOrSetLocal, ptr %13, i32 0, i32 2
  %29 = call noundef ptr @_ZNK6HandleclEv(ptr noundef nonnull align 8 dereferenceable(8) %28)
  %30 = call noundef zeroext i1 @_ZN16JvmtiVTSuspender20is_vthread_suspendedEP7oopDesc(ptr noundef %29)
  br i1 %30, label %33, label %31

31:                                               ; preds = %27
  %32 = getelementptr inbounds %class.VM_BaseGetOrSetLocal, ptr %13, i32 0, i32 9
  store i32 13, ptr %32, align 4
  store ptr null, ptr %2, align 8
  br label %100

33:                                               ; preds = %27, %1
  %34 = load i8, ptr %8, align 1
  %35 = trunc i8 %34 to i1
  br i1 %35, label %36, label %45

36:                                               ; preds = %33
  %37 = load ptr, ptr %7, align 8
  call void @_ZN12vframeStreamC2EP10JavaThreadbbb(ptr noundef nonnull align 8 dereferenceable(5104) %9, ptr noundef %37, i1 noundef zeroext false, i1 noundef zeroext true, i1 noundef zeroext false)
  %38 = call noundef zeroext i1 @_ZNK18vframeStreamCommon6at_endEv(ptr noundef nonnull align 8 dereferenceable(5104) %9)
  br i1 %38, label %44, label %39

39:                                               ; preds = %36
  %40 = call noundef ptr @_ZN18vframeStreamCommon12asJavaVFrameEv(ptr noundef nonnull align 8 dereferenceable(5104) %9)
  store ptr %40, ptr %6, align 8
  %41 = load ptr, ptr %7, align 8
  %42 = load ptr, ptr %6, align 8
  %43 = call noundef ptr @_ZN12JvmtiEnvBase28check_and_skip_hidden_framesEP10JavaThreadP10javaVFrame(ptr noundef %41, ptr noundef %42)
  store ptr %43, ptr %6, align 8
  br label %44

44:                                               ; preds = %39, %36
  br label %57

45:                                               ; preds = %33
  %46 = load ptr, ptr %5, align 8
  call void @_ZN6HandleC2Ev(ptr noundef nonnull align 8 dereferenceable(8) %11)
  %47 = getelementptr inbounds %class.Handle, ptr %11, i32 0, i32 0
  %48 = load ptr, ptr %47, align 8
  call void @_ZN12vframeStreamC1EP7oopDesc6Handle(ptr noundef nonnull align 8 dereferenceable(5104) %10, ptr noundef %46, ptr %48)
  %49 = call noundef zeroext i1 @_ZNK18vframeStreamCommon6at_endEv(ptr noundef nonnull align 8 dereferenceable(5104) %10)
  br i1 %49, label %56, label %50

50:                                               ; preds = %45
  %51 = call noundef ptr @_ZN18vframeStreamCommon12asJavaVFrameEv(ptr noundef nonnull align 8 dereferenceable(5104) %10)
  store ptr %51, ptr %6, align 8
  %52 = getelementptr inbounds %class.VM_VirtualThreadGetOrSetLocal, ptr %13, i32 0, i32 2
  %53 = call noundef ptr @_ZNK6HandleclEv(ptr noundef nonnull align 8 dereferenceable(8) %52)
  %54 = load ptr, ptr %6, align 8
  %55 = call noundef ptr @_ZN12JvmtiEnvBase28check_and_skip_hidden_framesEP7oopDescP10javaVFrame(ptr noundef %53, ptr noundef %54)
  store ptr %55, ptr %6, align 8
  br label %56

56:                                               ; preds = %50, %45
  br label %57

57:                                               ; preds = %56, %44
  store i32 0, ptr %12, align 4
  br label %58

58:                                               ; preds = %68, %57
  %59 = load ptr, ptr %6, align 8
  %60 = icmp ne ptr %59, null
  br i1 %60, label %61, label %66

61:                                               ; preds = %58
  %62 = load i32, ptr %12, align 4
  %63 = getelementptr inbounds %class.VM_BaseGetOrSetLocal, ptr %13, i32 0, i32 2
  %64 = load i32, ptr %63, align 8
  %65 = icmp slt i32 %62, %64
  br label %66

66:                                               ; preds = %61, %58
  %67 = phi i1 [ false, %58 ], [ %65, %61 ]
  br i1 %67, label %68, label %73

68:                                               ; preds = %66
  %69 = load ptr, ptr %6, align 8
  %70 = call noundef ptr @_ZNK6vframe11java_senderEv(ptr noundef nonnull align 8 dereferenceable(5064) %69)
  store ptr %70, ptr %6, align 8
  %71 = load i32, ptr %12, align 4
  %72 = add nsw i32 %71, 1
  store i32 %72, ptr %12, align 4
  br label %58, !llvm.loop !19

73:                                               ; preds = %66
  %74 = load i32, ptr %12, align 4
  %75 = getelementptr inbounds %class.VM_BaseGetOrSetLocal, ptr %13, i32 0, i32 2
  %76 = load i32, ptr %75, align 8
  %77 = icmp slt i32 %74, %76
  br i1 %77, label %81, label %78

78:                                               ; preds = %73
  %79 = load ptr, ptr %6, align 8
  %80 = icmp eq ptr %79, null
  br i1 %80, label %81, label %83

81:                                               ; preds = %78, %73
  %82 = getelementptr inbounds %class.VM_BaseGetOrSetLocal, ptr %13, i32 0, i32 9
  store i32 31, ptr %82, align 4
  store ptr null, ptr %2, align 8
  br label %100

83:                                               ; preds = %78
  %84 = getelementptr inbounds %class.VM_BaseGetOrSetLocal, ptr %13, i32 0, i32 7
  %85 = load i8, ptr %84, align 8
  %86 = trunc i8 %85 to i1
  br i1 %86, label %87, label %90

87:                                               ; preds = %83
  %88 = load i8, ptr %8, align 1
  %89 = trunc i8 %88 to i1
  br i1 %89, label %90, label %96

90:                                               ; preds = %87, %83
  %91 = load ptr, ptr %6, align 8
  %92 = load ptr, ptr %91, align 8
  %93 = getelementptr inbounds ptr, ptr %92, i64 3
  %94 = load ptr, ptr %93, align 8
  %95 = call noundef zeroext i1 %94(ptr noundef nonnull align 8 dereferenceable(5064) %91)
  br i1 %95, label %98, label %96

96:                                               ; preds = %90, %87
  %97 = getelementptr inbounds %class.VM_BaseGetOrSetLocal, ptr %13, i32 0, i32 9
  store i32 32, ptr %97, align 4
  store ptr null, ptr %2, align 8
  br label %100

98:                                               ; preds = %90
  %99 = load ptr, ptr %6, align 8
  store ptr %99, ptr %2, align 8
  br label %100

100:                                              ; preds = %98, %96, %81, %31
  %101 = load ptr, ptr %2, align 8
  ret ptr %101
}