; Function Attrs: mustprogress nounwind uwtable
define hidden noundef ptr @_ZN29VM_VirtualThreadGetOrSetLocal15get_java_vframeEv(ptr nocapture noundef nonnull align 8 dereferenceable(80) %0) unnamed_addr #0 align 2 {
  %2 = alloca %class.vframeStream, align 8
  %3 = alloca %class.vframeStream, align 8
  %4 = getelementptr inbounds i8, ptr %0, i64 72
  %5 = load ptr, ptr %4, align 8
  %6 = icmp eq ptr %5, null
  br i1 %6, label %_ZNK6HandleclEv.exit, label %7

7:                                                ; preds = %1
  %8 = load ptr, ptr %5, align 8
  br label %_ZNK6HandleclEv.exit

_ZNK6HandleclEv.exit:                             ; preds = %1, %7
  %9 = phi ptr [ %8, %7 ], [ null, %1 ]
  %10 = tail call noundef ptr @_ZN23java_lang_VirtualThread12continuationEP7oopDesc(ptr noundef %9) #17
  %11 = load ptr, ptr %4, align 8
  %12 = icmp eq ptr %11, null
  br i1 %12, label %_ZNK6HandleclEv.exit26, label %13

13:                                               ; preds = %_ZNK6HandleclEv.exit
  %14 = load ptr, ptr %11, align 8
  br label %_ZNK6HandleclEv.exit26

_ZNK6HandleclEv.exit26:                           ; preds = %_ZNK6HandleclEv.exit, %13
  %15 = phi ptr [ %14, %13 ], [ null, %_ZNK6HandleclEv.exit ]
  %16 = tail call noundef ptr @_ZN12JvmtiEnvBase22get_JavaThread_or_nullEP7oopDesc(ptr noundef %15) #17
  %.not = icmp eq ptr %16, null
  %17 = getelementptr inbounds i8, ptr %0, i64 57
  %18 = load i8, ptr %17, align 1
  %19 = trunc i8 %18 to i1
  br i1 %19, label %27, label %20

20:                                               ; preds = %_ZNK6HandleclEv.exit26
  %21 = load ptr, ptr %4, align 8
  %22 = icmp eq ptr %21, null
  br i1 %22, label %_ZNK6HandleclEv.exit27, label %23

23:                                               ; preds = %20
  %24 = load ptr, ptr %21, align 8
  br label %_ZNK6HandleclEv.exit27

_ZNK6HandleclEv.exit27:                           ; preds = %20, %23
  %25 = phi ptr [ %24, %23 ], [ null, %20 ]
  %26 = tail call noundef zeroext i1 @_ZN16JvmtiVTSuspender20is_vthread_suspendedEP7oopDesc(ptr noundef %25) #17
  br i1 %26, label %27, label %.sink.split

27:                                               ; preds = %_ZNK6HandleclEv.exit27, %_ZNK6HandleclEv.exit26
  br i1 %.not, label %35, label %28

28:                                               ; preds = %27
  call void @_ZN12vframeStreamC2EP10JavaThreadbbb(ptr noundef nonnull align 8 dereferenceable(5104) %2, ptr noundef nonnull %16, i1 noundef zeroext false, i1 noundef zeroext true, i1 noundef zeroext false)
  %29 = getelementptr inbounds i8, ptr %2, i64 5048
  %30 = load i32, ptr %29, align 8
  %31 = icmp eq i32 %30, 2
  br i1 %31, label %.sink.split, label %32

32:                                               ; preds = %28
  %33 = call noundef ptr @_ZN18vframeStreamCommon12asJavaVFrameEv(ptr noundef nonnull align 8 dereferenceable(5104) %2) #17
  %34 = call noundef ptr @_ZN12JvmtiEnvBase28check_and_skip_hidden_framesEP10JavaThreadP10javaVFrame(ptr noundef nonnull %16, ptr noundef %33) #17
  br label %47

35:                                               ; preds = %27
  call void @_ZN12vframeStreamC1EP7oopDesc6Handle(ptr noundef nonnull align 8 dereferenceable(5104) %3, ptr noundef %10, ptr null) #17
  %36 = getelementptr inbounds i8, ptr %3, i64 5048
  %37 = load i32, ptr %36, align 8
  %38 = icmp eq i32 %37, 2
  br i1 %38, label %.sink.split, label %39

39:                                               ; preds = %35
  %40 = call noundef ptr @_ZN18vframeStreamCommon12asJavaVFrameEv(ptr noundef nonnull align 8 dereferenceable(5104) %3) #17
  %41 = load ptr, ptr %4, align 8
  %42 = icmp eq ptr %41, null
  br i1 %42, label %_ZNK6HandleclEv.exit28, label %43

43:                                               ; preds = %39
  %44 = load ptr, ptr %41, align 8
  br label %_ZNK6HandleclEv.exit28

_ZNK6HandleclEv.exit28:                           ; preds = %39, %43
  %45 = phi ptr [ %44, %43 ], [ null, %39 ]
  %46 = call noundef ptr @_ZN12JvmtiEnvBase28check_and_skip_hidden_framesEP7oopDescP10javaVFrame(ptr noundef %45, ptr noundef %40) #17
  br label %47

47:                                               ; preds = %_ZNK6HandleclEv.exit28, %32
  %.019 = phi ptr [ %34, %32 ], [ %46, %_ZNK6HandleclEv.exit28 ]
  %48 = getelementptr inbounds i8, ptr %0, i64 24
  %.not2129 = icmp ne ptr %.019, null
  %49 = load i32, ptr %48, align 8
  %50 = icmp sgt i32 %49, 0
  %or.cond2430 = select i1 %.not2129, i1 %50, i1 false
  br i1 %or.cond2430, label %.lr.ph, label %.critedge

.lr.ph:                                           ; preds = %47, %.lr.ph
  %.032 = phi i32 [ %52, %.lr.ph ], [ 0, %47 ]
  %.131 = phi ptr [ %51, %.lr.ph ], [ %.019, %47 ]
  %51 = call noundef ptr @_ZNK6vframe11java_senderEv(ptr noundef nonnull align 8 dereferenceable(5064) %.131) #17
  %52 = add nuw nsw i32 %.032, 1
  %.not21 = icmp ne ptr %51, null
  %53 = load i32, ptr %48, align 8
  %54 = icmp slt i32 %52, %53
  %or.cond24 = select i1 %.not21, i1 %54, i1 false
  br i1 %or.cond24, label %.lr.ph, label %.critedge, !llvm.loop !22

.critedge:                                        ; preds = %.lr.ph, %47
  %.1.lcssa = phi ptr [ %.019, %47 ], [ %51, %.lr.ph ]
  %.lcssa = phi i1 [ %50, %47 ], [ %54, %.lr.ph ]
  %55 = icmp eq ptr %.1.lcssa, null
  %or.cond = or i1 %55, %.lcssa
  br i1 %or.cond, label %.sink.split, label %56

56:                                               ; preds = %.critedge
  %57 = getelementptr inbounds i8, ptr %0, i64 56
  %58 = load i8, ptr %57, align 8
  %59 = trunc i8 %58 to i1
  %brmerge.not = and i1 %.not, %59
  br i1 %brmerge.not, label %.sink.split, label %60

60:                                               ; preds = %56
  %61 = load ptr, ptr %.1.lcssa, align 8
  %62 = getelementptr inbounds i8, ptr %61, i64 24
  %63 = load ptr, ptr %62, align 8
  %64 = call noundef zeroext i1 %63(ptr noundef nonnull align 8 dereferenceable(5064) %.1.lcssa) #17
  br i1 %64, label %66, label %.sink.split

.sink.split:                                      ; preds = %60, %56, %.critedge, %35, %28, %_ZNK6HandleclEv.exit27
  %.sink = phi i32 [ 13, %_ZNK6HandleclEv.exit27 ], [ 31, %28 ], [ 31, %35 ], [ 31, %.critedge ], [ 32, %56 ], [ 32, %60 ]
  %65 = getelementptr inbounds i8, ptr %0, i64 60
  store i32 %.sink, ptr %65, align 4
  br label %66

66:                                               ; preds = %.sink.split, %60
  %.018 = phi ptr [ %.1.lcssa, %60 ], [ null, %.sink.split ]
  ret ptr %.018
}